; Function Attrs: nounwind uwtable
define ptr @H5Iremove_verify(i64 noundef %0, i32 noundef %1) local_unnamed_addr #0 {
  %3 = load i8, ptr @H5_libinit_g, align 1
  %4 = trunc i8 %3 to i1
  %5 = load i8, ptr @H5_libterm_g, align 1
  %6 = trunc i8 %5 to i1
  %7 = select i1 %4, i1 true, i1 %6
  br i1 %7, label %15, label %8

8:                                                ; preds = %2
  %9 = tail call i32 @H5_init_library() #3
  %10 = icmp slt i32 %9, 0
  br i1 %10, label %11, label %15

11:                                               ; preds = %8
  %12 = load i64, ptr @H5E_FUNC_g, align 8
  %13 = load i64, ptr @H5E_CANTINIT_g, align 8
  %14 = tail call i32 (ptr, ptr, i32, i64, i64, ptr, ...) @H5E_printf_stack(ptr noundef nonnull @.str, ptr noundef nonnull @__func__.H5Iremove_verify, i32 noundef 425, i64 noundef %12, i64 noundef %13, ptr noundef nonnull @.str.1) #3
  br label %.thread20

15:                                               ; preds = %8, %2
  %16 = tail call i32 @H5CX_push() #3
  %17 = icmp slt i32 %16, 0
  br i1 %17, label %18, label %22

18:                                               ; preds = %15
  %19 = load i64, ptr @H5E_FUNC_g, align 8
  %20 = load i64, ptr @H5E_CANTSET_g, align 8
  %21 = tail call i32 (ptr, ptr, i32, i64, i64, ptr, ...) @H5E_printf_stack(ptr noundef nonnull @.str, ptr noundef nonnull @__func__.H5Iremove_verify, i32 noundef 425, i64 noundef %19, i64 noundef %20, ptr noundef nonnull @.str.2) #3
  br label %.thread20

22:                                               ; preds = %15
  %23 = tail call i32 @H5E_clear_stack() #3
  %24 = add i32 %1, -1
  %or.cond = icmp ult i32 %24, 16
  br i1 %or.cond, label %.thread25, label %29

.thread25:                                        ; preds = %22
  %25 = load i64, ptr @H5E_ID_g, align 8
  %26 = load i64, ptr @H5E_BADGROUP_g, align 8
  %27 = tail call i32 (ptr, ptr, i32, i64, i64, ptr, ...) @H5E_printf_stack(ptr noundef nonnull @.str, ptr noundef nonnull @__func__.H5Iremove_verify, i32 noundef 428, i64 noundef %25, i64 noundef %26, ptr noundef nonnull @.str.6) #3
  %28 = tail call i32 @H5CX_pop(i1 noundef zeroext true) #3
  br label %.thread20

29:                                               ; preds = %22
  %30 = tail call ptr @H5I__remove_verify(i64 noundef %0, i32 noundef %1) #3
  %31 = tail call i32 @H5CX_pop(i1 noundef zeroext true) #3
  br label %33

.thread20:                                        ; preds = %18, %11, %.thread25
  %32 = tail call i32 @H5E_dump_api_stack() #3
  br label %33

33:                                               ; preds = %29, %.thread20
  %.0111523 = phi ptr [ null, %.thread20 ], [ %30, %29 ]
  ret ptr %.0111523
}